target datalayout = "e-m:e-p270:32:32-p271:32:32-p272:64:64-i64:64-i128:128-f80:128-n8:16:32:64-S128"
target triple = "x86_64-unknown-linux-gnu"

%"class.std::__cxx11::basic_string" = type { %"struct.std::__cxx11::basic_string<char>::_Alloc_hider", i64, %union.anon.13 }
%"struct.std::__cxx11::basic_string<char>::_Alloc_hider" = type { ptr }
%union.anon.13 = type { i64, [8 x i8] }
%"class.pbrt::Camera" = type { %"class.pbrt::TaggedPointer" }
%"class.pbrt::TaggedPointer" = type { i64 }
%"class.pbrt::Primitive" = type { %"class.pbrt::TaggedPointer.9" }
%"class.pbrt::TaggedPointer.9" = type { i64 }
%"class.std::vector" = type { %"struct.std::_Vector_base" }
%"struct.std::_Vector_base" = type { %"struct.std::_Vector_base<pbrt::Light, std::allocator<pbrt::Light>>::_Vector_impl" }
%"struct.std::_Vector_base<pbrt::Light, std::allocator<pbrt::Light>>::_Vector_impl" = type { %"struct.std::_Vector_base<pbrt::Light, std::allocator<pbrt::Light>>::_Vector_impl_data" }
%"struct.std::_Vector_base<pbrt::Light, std::allocator<pbrt::Light>>::_Vector_impl_data" = type { ptr, ptr, ptr }
%"class.pbrt::Integrator" = type { ptr, %"class.pbrt::Primitive", %"class.std::vector", %"class.std::vector" }
%"class.pbrt::LightSampler" = type { %"class.pbrt::TaggedPointer.166" }
%"class.pbrt::TaggedPointer.166" = type { i64 }
%"class.pbrt::MLTIntegrator" = type { %"class.pbrt::Integrator", %"class.pbrt::Camera", i8, %"class.pbrt::LightSampler", i32, i32, i32, float, float, i32 }

@.str.68 = private unnamed_addr constant [158 x i8] c"[ MLTIntegrator camera: %s maxDepth: %d nBootstrap: %d nChains: %d mutationsPerPixel: %d sigma: %f largeStepProbability: %f lightSampler: %s regularize: %s ]\00", align 1

; Function Attrs: mustprogress uwtable
define linkonce_odr dso_local void @_ZN4pbrt12StringPrintfIJRKNS_6CameraERKiS5_S5_S5_RKfS7_RKNS_12LightSamplerERKbEEENSt7__cxx1112basic_stringIcSt11char_traitsIcESaIcEEEPKcDpOT_(ptr noalias sret(%"class.std::__cxx11::basic_string") align 8 %agg.result, ptr noundef %fmt, ptr noundef nonnull align 8 dereferenceable(8) %args, ptr noundef nonnull align 4 dereferenceable(4) %args1, ptr noundef nonnull align 4 dereferenceable(4) %args3, ptr noundef nonnull align 4 dereferenceable(4) %args5, ptr noundef nonnull align 4 dereferenceable(4) %args7, ptr noundef nonnull align 4 dereferenceable(4) %args9, ptr noundef nonnull align 4 dereferenceable(4) %args11, ptr noundef nonnull align 8 dereferenceable(8) %args13, ptr noundef nonnull align 1 dereferenceable(1) %args15) #1 comdat personality ptr @__gxx_personality_v0 {
entry:
  %result.ptr = alloca ptr, align 8
  %fmt.addr = alloca ptr, align 8
  %args.addr = alloca ptr, align 8
  %args.addr2 = alloca ptr, align 8
  %args.addr4 = alloca ptr, align 8
  %args.addr6 = alloca ptr, align 8
  %args.addr8 = alloca ptr, align 8
  %args.addr10 = alloca ptr, align 8
  %args.addr12 = alloca ptr, align 8
  %args.addr14 = alloca ptr, align 8
  %args.addr16 = alloca ptr, align 8
  %nrvo = alloca i1, align 1
  %exn.slot = alloca ptr, align 8
  %ehselector.slot = alloca i32, align 4
  store ptr %agg.result, ptr %result.ptr, align 8
  store ptr %fmt, ptr %fmt.addr, align 8
  store ptr %args, ptr %args.addr, align 8
  store ptr %args1, ptr %args.addr2, align 8
  store ptr %args3, ptr %args.addr4, align 8
  store ptr %args5, ptr %args.addr6, align 8
  store ptr %args7, ptr %args.addr8, align 8
  store ptr %args9, ptr %args.addr10, align 8
  store ptr %args11, ptr %args.addr12, align 8
  store ptr %args13, ptr %args.addr14, align 8
  store ptr %args15, ptr %args.addr16, align 8
  store i1 false, ptr %nrvo, align 1
  call void @_ZNSt7__cxx1112basic_stringIcSt11char_traitsIcESaIcEEC1Ev(ptr noundef nonnull align 8 dereferenceable(32) %agg.result) #14
  %0 = load ptr, ptr %fmt.addr, align 8
  %1 = load ptr, ptr %args.addr, align 8
  %2 = load ptr, ptr %args.addr2, align 8
  %3 = load ptr, ptr %args.addr4, align 8
  %4 = load ptr, ptr %args.addr6, align 8
  %5 = load ptr, ptr %args.addr8, align 8
  %6 = load ptr, ptr %args.addr10, align 8
  %7 = load ptr, ptr %args.addr12, align 8
  %8 = load ptr, ptr %args.addr14, align 8
  %9 = load ptr, ptr %args.addr16, align 8
  invoke void @_ZN4pbrt6detail21stringPrintfRecursiveIRKNS_6CameraEJRKiS6_S6_S6_RKfS8_RKNS_12LightSamplerERKbEEEvPNSt7__cxx1112basic_stringIcSt11char_traitsIcESaIcEEEPKcOT_DpOT0_(ptr noundef %agg.result, ptr noundef %0, ptr noundef nonnull align 8 dereferenceable(8) %1, ptr noundef nonnull align 4 dereferenceable(4) %2, ptr noundef nonnull align 4 dereferenceable(4) %3, ptr noundef nonnull align 4 dereferenceable(4) %4, ptr noundef nonnull align 4 dereferenceable(4) %5, ptr noundef nonnull align 4 dereferenceable(4) %6, ptr noundef nonnull align 4 dereferenceable(4) %7, ptr noundef nonnull align 8 dereferenceable(8) %8, ptr noundef nonnull align 1 dereferenceable(1) %9)
          to label %invoke.cont unwind label %lpad

invoke.cont:                                      ; preds = %entry
  store i1 true, ptr %nrvo, align 1
  %nrvo.val = load i1, ptr %nrvo, align 1
  br i1 %nrvo.val, label %nrvo.skipdtor, label %nrvo.unused

lpad:                                             ; preds = %entry
  %10 = landingpad { ptr, i32 }
          cleanup
  %11 = extractvalue { ptr, i32 } %10, 0
  store ptr %11, ptr %exn.slot, align 8
  %12 = extractvalue { ptr, i32 } %10, 1
  store i32 %12, ptr %ehselector.slot, align 4
  call void @_ZNSt7__cxx1112basic_stringIcSt11char_traitsIcESaIcEED1Ev(ptr noundef nonnull align 8 dereferenceable(32) %agg.result) #14
  br label %eh.resume

nrvo.unused:                                      ; preds = %invoke.cont
  call void @_ZNSt7__cxx1112basic_stringIcSt11char_traitsIcESaIcEED1Ev(ptr noundef nonnull align 8 dereferenceable(32) %agg.result) #14
  br label %nrvo.skipdtor

nrvo.skipdtor:                                    ; preds = %nrvo.unused, %invoke.cont
  ret void

eh.resume:                                        ; preds = %lpad
  %exn = load ptr, ptr %exn.slot, align 8
  %sel = load i32, ptr %ehselector.slot, align 4
  %lpad.val = insertvalue { ptr, i32 } poison, ptr %exn, 0
  %lpad.val17 = insertvalue { ptr, i32 } %lpad.val, i32 %sel, 1
  resume { ptr, i32 } %lpad.val17
}

; Function Attrs: mustprogress uwtable
define dso_local void @_ZNK4pbrt13MLTIntegrator8ToStringB5cxx11Ev(ptr noalias sret(%"class.std::__cxx11::basic_string") align 8 %agg.result, ptr noundef nonnull align 8 dereferenceable(112) %this) unnamed_addr #1 align 2 {
entry:
  %result.ptr = alloca ptr, align 8
  %this.addr = alloca ptr, align 8
  store ptr %agg.result, ptr %result.ptr, align 8
  store ptr %this, ptr %this.addr, align 8
  %this1 = load ptr, ptr %this.addr, align 8
  %camera = getelementptr inbounds %"class.pbrt::MLTIntegrator", ptr %this1, i32 0, i32 1
  %maxDepth = getelementptr inbounds %"class.pbrt::MLTIntegrator", ptr %this1, i32 0, i32 4
  %nBootstrap = getelementptr inbounds %"class.pbrt::MLTIntegrator", ptr %this1, i32 0, i32 5
  %nChains = getelementptr inbounds %"class.pbrt::MLTIntegrator", ptr %this1, i32 0, i32 9
  %mutationsPerPixel = getelementptr inbounds %"class.pbrt::MLTIntegrator", ptr %this1, i32 0, i32 6
  %sigma = getelementptr inbounds %"class.pbrt::MLTIntegrator", ptr %this1, i32 0, i32 7
  %largeStepProbability = getelementptr inbounds %"class.pbrt::MLTIntegrator", ptr %this1, i32 0, i32 8
  %lightSampler = getelementptr inbounds %"class.pbrt::MLTIntegrator", ptr %this1, i32 0, i32 3
  %regularize = getelementptr inbounds %"class.pbrt::MLTIntegrator", ptr %this1, i32 0, i32 2
  call void @_ZN4pbrt12StringPrintfIJRKNS_6CameraERKiS5_S5_S5_RKfS7_RKNS_12LightSamplerERKbEEENSt7__cxx1112basic_stringIcSt11char_traitsIcESaIcEEEPKcDpOT_(ptr sret(%"class.std::__cxx11::basic_string") align 8 %agg.result, ptr noundef @.str.68, ptr noundef nonnull align 8 dereferenceable(8) %camera, ptr noundef nonnull align 4 dereferenceable(4) %maxDepth, ptr noundef nonnull align 4 dereferenceable(4) %nBootstrap, ptr noundef nonnull align 4 dereferenceable(4) %nChains, ptr noundef nonnull align 4 dereferenceable(4) %mutationsPerPixel, ptr noundef nonnull align 4 dereferenceable(4) %sigma, ptr noundef nonnull align 4 dereferenceable(4) %largeStepProbability, ptr noundef nonnull align 8 dereferenceable(8) %lightSampler, ptr noundef nonnull align 1 dereferenceable(1) %regularize)
  ret void
}