; Function Attrs: mustprogress uwtable
define dso_local void @_ZNK4pbrt13MLTIntegrator8ToStringB5cxx11Ev(ptr noalias nonnull sret(%"class.std::__cxx11::basic_string") align 8 %agg.result, ptr noundef nonnull align 8 dereferenceable(112) %this) unnamed_addr #1 align 2 personality ptr @__gxx_personality_v0 {
entry:
  %camera = getelementptr inbounds i8, ptr %this, i64 64
  %maxDepth = getelementptr inbounds i8, ptr %this, i64 88
  %nBootstrap = getelementptr inbounds i8, ptr %this, i64 92
  %nChains = getelementptr inbounds i8, ptr %this, i64 108
  %mutationsPerPixel = getelementptr inbounds i8, ptr %this, i64 96
  %sigma = getelementptr inbounds i8, ptr %this, i64 100
  %largeStepProbability = getelementptr inbounds i8, ptr %this, i64 104
  %lightSampler = getelementptr inbounds i8, ptr %this, i64 80
  %regularize = getelementptr inbounds i8, ptr %this, i64 72
  tail call void @_ZNSt7__cxx1112basic_stringIcSt11char_traitsIcESaIcEEC1Ev(ptr noundef nonnull align 8 dereferenceable(32) %agg.result) #31
  invoke void @_ZN4pbrt6detail21stringPrintfRecursiveIRKNS_6CameraEJRKiS6_S6_S6_RKfS8_RKNS_12LightSamplerERKbEEEvPNSt7__cxx1112basic_stringIcSt11char_traitsIcESaIcEEEPKcOT_DpOT0_(ptr noundef nonnull %agg.result, ptr noundef nonnull @.str.68, ptr noundef nonnull align 8 dereferenceable(8) %camera, ptr noundef nonnull align 4 dereferenceable(4) %maxDepth, ptr noundef nonnull align 4 dereferenceable(4) %nBootstrap, ptr noundef nonnull align 4 dereferenceable(4) %nChains, ptr noundef nonnull align 4 dereferenceable(4) %mutationsPerPixel, ptr noundef nonnull align 4 dereferenceable(4) %sigma, ptr noundef nonnull align 4 dereferenceable(4) %largeStepProbability, ptr noundef nonnull align 8 dereferenceable(8) %lightSampler, ptr noundef nonnull align 1 dereferenceable(1) %regularize)
          to label %_ZN4pbrt12StringPrintfIJRKNS_6CameraERKiS5_S5_S5_RKfS7_RKNS_12LightSamplerERKbEEENSt7__cxx1112basic_stringIcSt11char_traitsIcESaIcEEEPKcDpOT_.exit unwind label %lpad.i

lpad.i:                                           ; preds = %entry
  %0 = landingpad { ptr, i32 }
          cleanup
  tail call void @_ZNSt7__cxx1112basic_stringIcSt11char_traitsIcESaIcEED1Ev(ptr noundef nonnull align 8 dereferenceable(32) %agg.result) #31
  resume { ptr, i32 } %0

_ZN4pbrt12StringPrintfIJRKNS_6CameraERKiS5_S5_S5_RKfS7_RKNS_12LightSamplerERKbEEENSt7__cxx1112basic_stringIcSt11char_traitsIcESaIcEEEPKcDpOT_.exit: ; preds = %entry
  ret void
}